target datalayout = "e-m:e-p270:32:32-p271:32:32-p272:64:64-i64:64-i128:128-f80:128-n8:16:32:64-S128"
target triple = "x86_64-pc-linux-gnu"

%struct.ImGuiStorage = type { %struct.ImVector.2 }
%struct.ImVector.2 = type { i32, i32, ptr }
%struct.ImGuiSelectionBasicStorage = type { i32, i8, ptr, ptr, i32, %struct.ImGuiStorage }

; Function Attrs: inlinehint mustprogress nounwind uwtable
define linkonce_odr void @_ZN8ImVectorI16ImGuiStoragePairE4swapERS1_(ptr noundef nonnull align 8 dereferenceable(16) %0, ptr noundef nonnull align 8 dereferenceable(16) %1) #2 comdat align 2 {
  %3 = alloca ptr, align 8
  %4 = alloca ptr, align 8
  %5 = alloca i32, align 4
  %6 = alloca i32, align 4
  %7 = alloca ptr, align 8
  store ptr %0, ptr %3, align 8, !tbaa !745
  store ptr %1, ptr %4, align 8, !tbaa !745
  %8 = load ptr, ptr %3, align 8
  call void @llvm.lifetime.start.p0(i64 4, ptr %5) #17
  %9 = load ptr, ptr %4, align 8, !tbaa !745
  %10 = getelementptr inbounds nuw %struct.ImVector.2, ptr %9, i32 0, i32 0
  %11 = load i32, ptr %10, align 8, !tbaa !748
  store i32 %11, ptr %5, align 4, !tbaa !8
  %12 = getelementptr inbounds nuw %struct.ImVector.2, ptr %8, i32 0, i32 0
  %13 = load i32, ptr %12, align 8, !tbaa !748
  %14 = load ptr, ptr %4, align 8, !tbaa !745
  %15 = getelementptr inbounds nuw %struct.ImVector.2, ptr %14, i32 0, i32 0
  store i32 %13, ptr %15, align 8, !tbaa !748
  %16 = load i32, ptr %5, align 4, !tbaa !8
  %17 = getelementptr inbounds nuw %struct.ImVector.2, ptr %8, i32 0, i32 0
  store i32 %16, ptr %17, align 8, !tbaa !748
  call void @llvm.lifetime.start.p0(i64 4, ptr %6) #17
  %18 = load ptr, ptr %4, align 8, !tbaa !745
  %19 = getelementptr inbounds nuw %struct.ImVector.2, ptr %18, i32 0, i32 1
  %20 = load i32, ptr %19, align 4, !tbaa !747
  store i32 %20, ptr %6, align 4, !tbaa !8
  %21 = getelementptr inbounds nuw %struct.ImVector.2, ptr %8, i32 0, i32 1
  %22 = load i32, ptr %21, align 4, !tbaa !747
  %23 = load ptr, ptr %4, align 8, !tbaa !745
  %24 = getelementptr inbounds nuw %struct.ImVector.2, ptr %23, i32 0, i32 1
  store i32 %22, ptr %24, align 4, !tbaa !747
  %25 = load i32, ptr %6, align 4, !tbaa !8
  %26 = getelementptr inbounds nuw %struct.ImVector.2, ptr %8, i32 0, i32 1
  store i32 %25, ptr %26, align 4, !tbaa !747
  call void @llvm.lifetime.start.p0(i64 8, ptr %7) #17
  %27 = load ptr, ptr %4, align 8, !tbaa !745
  %28 = getelementptr inbounds nuw %struct.ImVector.2, ptr %27, i32 0, i32 2
  %29 = load ptr, ptr %28, align 8, !tbaa !749
  store ptr %29, ptr %7, align 8, !tbaa !750
  %30 = getelementptr inbounds nuw %struct.ImVector.2, ptr %8, i32 0, i32 2
  %31 = load ptr, ptr %30, align 8, !tbaa !749
  %32 = load ptr, ptr %4, align 8, !tbaa !745
  %33 = getelementptr inbounds nuw %struct.ImVector.2, ptr %32, i32 0, i32 2
  store ptr %31, ptr %33, align 8, !tbaa !749
  %34 = load ptr, ptr %7, align 8, !tbaa !750
  %35 = getelementptr inbounds nuw %struct.ImVector.2, ptr %8, i32 0, i32 2
  store ptr %34, ptr %35, align 8, !tbaa !749
  call void @llvm.lifetime.end.p0(i64 8, ptr %7) #17
  call void @llvm.lifetime.end.p0(i64 4, ptr %6) #17
  call void @llvm.lifetime.end.p0(i64 4, ptr %5) #17
  ret void
}

; Function Attrs: inlinehint mustprogress nounwind uwtable
define internal void @_ZL6ImSwapIiEvRT_S1_(ptr noundef nonnull align 4 dereferenceable(4) %0, ptr noundef nonnull align 4 dereferenceable(4) %1) #2 {
  %3 = alloca ptr, align 8
  %4 = alloca ptr, align 8
  %5 = alloca i32, align 4
  store ptr %0, ptr %3, align 8, !tbaa !259
  store ptr %1, ptr %4, align 8, !tbaa !259
  call void @llvm.lifetime.start.p0(i64 4, ptr %5) #17
  %6 = load ptr, ptr %3, align 8, !tbaa !259
  %7 = load i32, ptr %6, align 4, !tbaa !8
  store i32 %7, ptr %5, align 4, !tbaa !8
  %8 = load ptr, ptr %4, align 8, !tbaa !259
  %9 = load i32, ptr %8, align 4, !tbaa !8
  %10 = load ptr, ptr %3, align 8, !tbaa !259
  store i32 %9, ptr %10, align 4, !tbaa !8
  %11 = load i32, ptr %5, align 4, !tbaa !8
  %12 = load ptr, ptr %4, align 8, !tbaa !259
  store i32 %11, ptr %12, align 4, !tbaa !8
  call void @llvm.lifetime.end.p0(i64 4, ptr %5) #17
  ret void
}

; Function Attrs: mustprogress uwtable
define void @_ZN26ImGuiSelectionBasicStorage4SwapERS_(ptr noundef nonnull align 8 dereferenceable(48) %0, ptr noundef nonnull align 8 dereferenceable(48) %1) #9 align 2 {
  %3 = alloca ptr, align 8
  %4 = alloca ptr, align 8
  store ptr %0, ptr %3, align 8, !tbaa !737
  store ptr %1, ptr %4, align 8, !tbaa !737
  %5 = load ptr, ptr %3, align 8
  %6 = getelementptr inbounds nuw %struct.ImGuiSelectionBasicStorage, ptr %5, i32 0, i32 0
  %7 = load ptr, ptr %4, align 8, !tbaa !737
  %8 = getelementptr inbounds nuw %struct.ImGuiSelectionBasicStorage, ptr %7, i32 0, i32 0
  call void @_ZL6ImSwapIiEvRT_S1_(ptr noundef nonnull align 4 dereferenceable(4) %6, ptr noundef nonnull align 4 dereferenceable(4) %8)
  %9 = getelementptr inbounds nuw %struct.ImGuiSelectionBasicStorage, ptr %5, i32 0, i32 4
  %10 = load ptr, ptr %4, align 8, !tbaa !737
  %11 = getelementptr inbounds nuw %struct.ImGuiSelectionBasicStorage, ptr %10, i32 0, i32 4
  call void @_ZL6ImSwapIiEvRT_S1_(ptr noundef nonnull align 4 dereferenceable(4) %9, ptr noundef nonnull align 4 dereferenceable(4) %11)
  %12 = getelementptr inbounds nuw %struct.ImGuiSelectionBasicStorage, ptr %5, i32 0, i32 5
  %13 = getelementptr inbounds nuw %struct.ImGuiStorage, ptr %12, i32 0, i32 0
  %14 = load ptr, ptr %4, align 8, !tbaa !737
  %15 = getelementptr inbounds nuw %struct.ImGuiSelectionBasicStorage, ptr %14, i32 0, i32 5
  %16 = getelementptr inbounds nuw %struct.ImGuiStorage, ptr %15, i32 0, i32 0
  call void @_ZN8ImVectorI16ImGuiStoragePairE4swapERS1_(ptr noundef nonnull align 8 dereferenceable(16) %13, ptr noundef nonnull align 8 dereferenceable(16) %16)
  ret void
}