; Function Attrs: mustprogress nofree norecurse nosync nounwind willreturn memory(argmem: readwrite) uwtable
define void @_ZN26ImGuiSelectionBasicStorage4SwapERS_(ptr noundef nonnull align 8 captures(none) dereferenceable(48) %0, ptr noundef nonnull align 8 captures(none) dereferenceable(48) %1) local_unnamed_addr #16 align 2 {
  %3 = load i32, ptr %0, align 8, !tbaa !177
  %4 = load i32, ptr %1, align 8, !tbaa !177
  store i32 %4, ptr %0, align 8, !tbaa !177
  store i32 %3, ptr %1, align 8, !tbaa !177
  %5 = getelementptr inbounds nuw i8, ptr %0, i64 24
  %6 = getelementptr inbounds nuw i8, ptr %1, i64 24
  %7 = load i32, ptr %5, align 8, !tbaa !177
  %8 = load i32, ptr %6, align 8, !tbaa !177
  store i32 %8, ptr %5, align 8, !tbaa !177
  store i32 %7, ptr %6, align 8, !tbaa !177
  %9 = getelementptr inbounds nuw i8, ptr %0, i64 32
  %10 = getelementptr inbounds nuw i8, ptr %1, i64 32
  %11 = load i32, ptr %10, align 8, !tbaa !662
  %12 = load i32, ptr %9, align 8, !tbaa !662
  store i32 %12, ptr %10, align 8, !tbaa !662
  store i32 %11, ptr %9, align 8, !tbaa !662
  %13 = getelementptr inbounds nuw i8, ptr %1, i64 36
  %14 = load i32, ptr %13, align 4, !tbaa !660
  %15 = getelementptr inbounds nuw i8, ptr %0, i64 36
  %16 = load i32, ptr %15, align 4, !tbaa !660
  store i32 %16, ptr %13, align 4, !tbaa !660
  store i32 %14, ptr %15, align 4, !tbaa !660
  %17 = getelementptr inbounds nuw i8, ptr %1, i64 40
  %18 = load ptr, ptr %17, align 8, !tbaa !661
  %19 = getelementptr inbounds nuw i8, ptr %0, i64 40
  %20 = load ptr, ptr %19, align 8, !tbaa !661
  store ptr %20, ptr %17, align 8, !tbaa !661
  store ptr %18, ptr %19, align 8, !tbaa !661
  ret void
}